; Function Attrs: nounwind uwtable
define dso_local noundef ptr @php_hash_fetch_ops(ptr noundef %0) local_unnamed_addr #0 {
  %2 = tail call ptr @zend_string_tolower_ex(ptr noundef %0, i1 noundef zeroext false) #16
  %3 = tail call ptr @zend_hash_find(ptr noundef nonnull @php_hash_hashtable, ptr noundef %2) #16
  %.not.i = icmp eq ptr %3, null
  br i1 %.not.i, label %zend_hash_find_ptr.exit, label %4

4:                                                ; preds = %1
  %5 = load ptr, ptr %3, align 8, !tbaa !4, !nonnull !7, !noundef !7
  br label %zend_hash_find_ptr.exit

zend_hash_find_ptr.exit:                          ; preds = %1, %4
  %.0.i = phi ptr [ %5, %4 ], [ null, %1 ]
  %6 = getelementptr inbounds nuw i8, ptr %2, i64 4
  %7 = load i32, ptr %6, align 4, !tbaa !4
  %8 = and i32 %7, 64
  %.not.i4 = icmp eq i32 %8, 0
  br i1 %.not.i4, label %9, label %zend_string_release.exit

9:                                                ; preds = %zend_hash_find_ptr.exit
  %10 = load i32, ptr %2, align 4, !tbaa !8
  %11 = icmp ne i32 %10, 0
  tail call void @llvm.assume(i1 %11)
  %12 = add i32 %10, -1
  store i32 %12, ptr %2, align 4, !tbaa !8
  %13 = icmp eq i32 %12, 0
  br i1 %13, label %14, label %zend_string_release.exit

14:                                               ; preds = %9
  %15 = and i32 %7, 128
  %.not5.i = icmp eq i32 %15, 0
  br i1 %.not5.i, label %17, label %16

16:                                               ; preds = %14
  tail call void @free(ptr noundef nonnull %2) #16
  br label %zend_string_release.exit

17:                                               ; preds = %14
  tail call void @_efree(ptr noundef nonnull %2) #16
  br label %zend_string_release.exit

zend_string_release.exit:                         ; preds = %zend_hash_find_ptr.exit, %9, %16, %17
  ret ptr %.0.i
}